; Function Attrs: mustprogress nofree norecurse nosync nounwind memory(readwrite, inaccessiblemem: none) uwtable
define dso_local void @_ZN9struct_pb8internal12serialize_toIN22protobuf_test_messages6proto220NullHypothesisProto2EEEvPcmRKT_RKNS_13UnknownFieldsE(ptr nocapture noundef writeonly %data, i64 noundef %size, ptr nocapture noundef nonnull readnone align 1 dereferenceable(1) %t, ptr nocapture noundef nonnull readonly align 8 dereferenceable(24) %unknown_fields) local_unnamed_addr #5 {
entry:
  %0 = load ptr, ptr %unknown_fields, align 8
  %_M_finish.i.i = getelementptr inbounds i8, ptr %unknown_fields, i64 8
  %1 = load ptr, ptr %_M_finish.i.i, align 8
  %cmp.i7.i = icmp eq ptr %0, %1
  br i1 %cmp.i7.i, label %_ZNK9struct_pb13UnknownFields12serialize_toEPcRmm.exit, label %for.body.i

for.body.i:                                       ; preds = %entry, %for.body.i
  %pos.0 = phi i64 [ %add.i, %for.body.i ], [ 0, %entry ]
  %__begin2.sroa.0.08.i = phi ptr [ %incdec.ptr.i.i, %for.body.i ], [ %0, %entry ]
  %add.ptr.i = getelementptr inbounds i8, ptr %data, i64 %pos.0
  %2 = load ptr, ptr %__begin2.sroa.0.08.i, align 8
  %len.i = getelementptr inbounds i8, ptr %__begin2.sroa.0.08.i, i64 8
  %3 = load i64, ptr %len.i, align 8
  tail call void @llvm.memcpy.p0.p0.i64(ptr align 1 %add.ptr.i, ptr align 1 %2, i64 %3, i1 false)
  %4 = load i64, ptr %len.i, align 8
  %add.i = add i64 %4, %pos.0
  %incdec.ptr.i.i = getelementptr inbounds i8, ptr %__begin2.sroa.0.08.i, i64 16
  %cmp.i.i = icmp eq ptr %incdec.ptr.i.i, %1
  br i1 %cmp.i.i, label %_ZNK9struct_pb13UnknownFields12serialize_toEPcRmm.exit, label %for.body.i

_ZNK9struct_pb13UnknownFields12serialize_toEPcRmm.exit: ; preds = %for.body.i, %entry
  ret void
}